; Function Attrs: mustprogress uwtable
define void @_ZN5faiss29IndexProductResidualQuantizerC2Ev(ptr noundef nonnull align 8 dereferenceable(424) %0) unnamed_addr #2 align 2 personality ptr @__gxx_personality_v0 {
  store ptr getelementptr inbounds ({ [25 x ptr] }, ptr @_ZTVN5faiss29IndexProductResidualQuantizerE, i64 0, i32 0, i64 2), ptr %0, align 8
  %2 = getelementptr inbounds i8, ptr %0, i64 80
  %3 = getelementptr inbounds i8, ptr %0, i64 96
  %4 = load i64, ptr %3, align 8
  tail call void @_ZN5faiss14IndexFlatCodesC2EmlNS_10MetricTypeE(ptr noundef nonnull align 8 dereferenceable(72) %0, i64 noundef %4, i64 noundef 0, i32 noundef 1)
  %5 = getelementptr inbounds i8, ptr %0, i64 72
  store ptr %2, ptr %5, align 8
  store ptr getelementptr inbounds ({ [25 x ptr] }, ptr @_ZTVN5faiss29IndexProductResidualQuantizerE, i64 0, i32 0, i64 2), ptr %0, align 8
  invoke void @_ZN5faiss24ProductResidualQuantizerC1EmmmmNS_17AdditiveQuantizer13Search_type_tE(ptr noundef nonnull align 8 dereferenceable(344) %2, i64 noundef 0, i64 noundef 0, i64 noundef 0, i64 noundef 0, i32 noundef 0)
          to label %_ZN5faiss29IndexProductResidualQuantizerC2EimmmNS_10MetricTypeENS_17AdditiveQuantizer13Search_type_tE.exit unwind label %6

6:                                                ; preds = %1
  %7 = landingpad { ptr, i32 }
          cleanup
  tail call void @_ZN5faiss22IndexAdditiveQuantizerD2Ev(ptr noundef nonnull align 8 dereferenceable(80) %0) #14
  resume { ptr, i32 } %7

_ZN5faiss29IndexProductResidualQuantizerC2EimmmNS_10MetricTypeENS_17AdditiveQuantizer13Search_type_tE.exit: ; preds = %1
  %8 = load i64, ptr %3, align 8
  %9 = getelementptr inbounds i8, ptr %0, i64 40
  store i64 %8, ptr %9, align 8
  %10 = getelementptr inbounds i8, ptr %0, i64 25
  store i8 0, ptr %10, align 1
  ret void
}